; Function Attrs: nounwind uwtable
define dso_local i32 @assign_special_exec_param(ptr noundef readonly captures(none) %0) local_unnamed_addr #0 {
  %2 = getelementptr inbounds nuw i8, ptr %0, i64 16
  %3 = load ptr, ptr %2, align 8
  %4 = getelementptr inbounds nuw i8, ptr %3, i64 128
  %5 = load ptr, ptr %4, align 8
  %.not.i = icmp eq ptr %5, null
  br i1 %.not.i, label %list_length.exit, label %6

6:                                                ; preds = %1
  %7 = getelementptr inbounds nuw i8, ptr %5, i64 4
  %8 = load i32, ptr %7, align 4
  br label %list_length.exit

list_length.exit:                                 ; preds = %1, %6
  %9 = phi i32 [ %8, %6 ], [ 0, %1 ]
  %10 = tail call ptr @lappend_oid(ptr noundef %5, i32 noundef 0) #4
  %11 = load ptr, ptr %2, align 8
  %12 = getelementptr inbounds nuw i8, ptr %11, i64 128
  store ptr %10, ptr %12, align 8
  ret i32 %9
}